(dp1
S'null'
p2
S'None'
p3
sS'false'
p4
S'False'
p5
sS'string'
p6
g6
sS'integer'
p7
g7
sS'array'
p8
S'list'
p9
sS'object'
p10
S'dictionary'
p11
sS'true'
p12
S'True'
p13
sS'realnumber'
p14
S'float'
p15
s.